; Function Attrs: nounwind uwtable
define dso_local void @trackingHandlePendingKeyInvalidations() local_unnamed_addr #0 {
  %1 = alloca %struct.listIter, align 8
  %2 = load ptr, ptr getelementptr inbounds nuw (i8, ptr @server, i64 7664), align 8, !tbaa !103
  %3 = getelementptr inbounds nuw i8, ptr %2, i64 40
  %4 = load i64, ptr %3, align 8, !tbaa !104
  %5 = icmp eq i64 %4, 0
  %6 = load i32, ptr getelementptr inbounds nuw (i8, ptr @server, i64 1512), align 8
  %7 = icmp ne i32 %6, 0
  %or.cond = select i1 %5, i1 true, i1 %7
  br i1 %or.cond, label %75, label %8

8:                                                ; preds = %0
  call void @llvm.lifetime.start.p0(i64 16, ptr nonnull %1) #9
  call void @listRewind(ptr noundef nonnull %2, ptr noundef nonnull %1) #9
  %9 = call ptr @listNext(ptr noundef nonnull %1) #9
  %.not17 = icmp eq ptr %9, null
  br i1 %.not17, label %._crit_edge, label %.lr.ph

.lr.ph:                                           ; preds = %8, %72
  %10 = phi ptr [ %73, %72 ], [ %9, %8 ]
  %11 = getelementptr inbounds nuw i8, ptr %10, i64 16
  %12 = load ptr, ptr %11, align 8, !tbaa !106
  %13 = load ptr, ptr getelementptr inbounds nuw (i8, ptr @server, i64 1480), align 8, !tbaa !107
  %.not9 = icmp eq ptr %13, null
  %.not11 = icmp eq ptr %12, null
  br i1 %.not9, label %70, label %14

14:                                               ; preds = %.lr.ph
  br i1 %.not11, label %40, label %15

15:                                               ; preds = %14
  %16 = getelementptr inbounds nuw i8, ptr %12, i64 8
  %17 = load ptr, ptr %16, align 8, !tbaa !65
  %18 = getelementptr inbounds i8, ptr %17, i64 -1
  %19 = load i8, ptr %18, align 1, !tbaa !67
  %20 = zext i8 %19 to i32
  %21 = and i32 %20, 7
  switch i32 %21, label %.thread15 [
    i32 0, label %22
    i32 1, label %25
    i32 2, label %29
    i32 3, label %33
    i32 4, label %37
  ]

22:                                               ; preds = %15
  %23 = lshr i32 %20, 3
  %24 = zext nneg i32 %23 to i64
  br label %.thread15

25:                                               ; preds = %15
  %26 = getelementptr inbounds i8, ptr %17, i64 -3
  %27 = load i8, ptr %26, align 1, !tbaa !67
  %28 = zext i8 %27 to i64
  br label %.thread15

29:                                               ; preds = %15
  %30 = getelementptr inbounds i8, ptr %17, i64 -5
  %31 = load i16, ptr %30, align 1, !tbaa !68
  %32 = zext i16 %31 to i64
  br label %.thread15

33:                                               ; preds = %15
  %34 = getelementptr inbounds i8, ptr %17, i64 -9
  %35 = load i32, ptr %34, align 1, !tbaa !70
  %36 = zext i32 %35 to i64
  br label %.thread15

37:                                               ; preds = %15
  %38 = getelementptr inbounds i8, ptr %17, i64 -17
  %39 = load i64, ptr %38, align 1, !tbaa !71
  br label %.thread15

.thread15:                                        ; preds = %37, %33, %29, %25, %22, %15
  %.0.i = phi i64 [ %39, %37 ], [ %36, %33 ], [ %32, %29 ], [ %28, %25 ], [ %24, %22 ], [ 0, %15 ]
  call void @sendTrackingMessage(ptr noundef nonnull %13, ptr noundef nonnull %17, i64 noundef %.0.i, i32 noundef 0)
  br label %71

40:                                               ; preds = %14
  %41 = getelementptr inbounds nuw i8, ptr %13, i64 28
  %42 = load i32, ptr %41, align 4, !tbaa !91
  %43 = sext i32 %42 to i64
  %44 = getelementptr inbounds [4 x ptr], ptr getelementptr inbounds nuw (i8, ptr @shared, i64 64), i64 0, i64 %43
  %45 = load ptr, ptr %44, align 8, !tbaa !64
  %46 = getelementptr inbounds nuw i8, ptr %45, i64 8
  %47 = load ptr, ptr %46, align 8, !tbaa !65
  %48 = getelementptr inbounds i8, ptr %47, i64 -1
  %49 = load i8, ptr %48, align 1, !tbaa !67
  %50 = zext i8 %49 to i32
  %51 = and i32 %50, 7
  switch i32 %51, label %.thread [
    i32 0, label %52
    i32 1, label %55
    i32 2, label %59
    i32 3, label %63
    i32 4, label %67
  ]

52:                                               ; preds = %40
  %53 = lshr i32 %50, 3
  %54 = zext nneg i32 %53 to i64
  br label %.thread

55:                                               ; preds = %40
  %56 = getelementptr inbounds i8, ptr %47, i64 -3
  %57 = load i8, ptr %56, align 1, !tbaa !67
  %58 = zext i8 %57 to i64
  br label %.thread

59:                                               ; preds = %40
  %60 = getelementptr inbounds i8, ptr %47, i64 -5
  %61 = load i16, ptr %60, align 1, !tbaa !68
  %62 = zext i16 %61 to i64
  br label %.thread

63:                                               ; preds = %40
  %64 = getelementptr inbounds i8, ptr %47, i64 -9
  %65 = load i32, ptr %64, align 1, !tbaa !70
  %66 = zext i32 %65 to i64
  br label %.thread

67:                                               ; preds = %40
  %68 = getelementptr inbounds i8, ptr %47, i64 -17
  %69 = load i64, ptr %68, align 1, !tbaa !71
  br label %.thread

.thread:                                          ; preds = %67, %63, %59, %55, %52, %40
  %.0.i12 = phi i64 [ %69, %67 ], [ %66, %63 ], [ %62, %59 ], [ %58, %55 ], [ %54, %52 ], [ 0, %40 ]
  call void @sendTrackingMessage(ptr noundef nonnull %13, ptr noundef nonnull %47, i64 noundef %.0.i12, i32 noundef 1)
  br label %72

70:                                               ; preds = %.lr.ph
  br i1 %.not11, label %72, label %71

71:                                               ; preds = %.thread15, %70
  call void @decrRefCount(ptr noundef nonnull %12) #9
  br label %72

72:                                               ; preds = %.thread, %71, %70
  %73 = call ptr @listNext(ptr noundef nonnull %1) #9
  %.not = icmp eq ptr %73, null
  br i1 %.not, label %._crit_edge, label %.lr.ph, !llvm.loop !108

._crit_edge:                                      ; preds = %72, %8
  %74 = load ptr, ptr getelementptr inbounds nuw (i8, ptr @server, i64 7664), align 8, !tbaa !103
  call void @listEmpty(ptr noundef %74) #9
  call void @llvm.lifetime.end.p0(i64 16, ptr nonnull %1) #9
  br label %75

75:                                               ; preds = %0, %._crit_edge
  ret void
}